#include <math.h>
#include <stdio.h>
#include <stdlib.h>
#include <string.h>
#define LEN 100
#define ASCII 100
#define MAX_N 100
#define MAX_N 100
#define L 100
#define MAX 100
#define ASC 100
#define null 0
#define Len 100
#define M 100
#define SUM 100
#define NUMBER 100
#define SIZE 100
#define N 100
#define Max 100
#define X 100
#define Y 100
#define A 100
#define MAXN 100
#define MAXSIZE 100
struct student 
{char num[10];
char name[20];
char fm;
int age;
int score;
char add[50];
struct student *next;
       };
int n;
struct student *creat(void)
{struct student *head;
struct student *p1,*p2;
n=0;
p1=p2=(struct student*)malloc(LEN);
gets(p1->num);
head=NULL;
while(strcmp(p1->num,"end")!=0)
{n=n+1;
if(n==1) p1->next=NULL;
else p1->next=p2;p2=p1;head=p2;
p1=(struct student*)malloc(LEN);
gets(p1->num);
                 }

return head;
}

int main()
{struct student *head;
struct student *p1,*p2;
struct student *creat(void);
head=creat();
void print (struct student *head);
print(head);
    }
    
void print (struct student *head)
{struct student *p;
p=head;
if(head!=NULL)
do  {printf("%s\n",p->num);
p=p->next;}while (p!=NULL);
     }
